#include <math.h>
#include <stdio.h>
#include <stdlib.h>
#include <string.h>

int decomposition(int m,int k){
    int res=1;
    for(int i=k;i*i<=m;i++){
        if(m%i==0&&m/i>=i){
          
            res+=decomposition(m/i,i);
        }
    }
    return res;
}
int main(){
    int n;
    while(scanf("%d",&n)==1){
        for(int i=0;i<n;i++){
            int m;
            scanf("%d",&m);
            printf("%d\n",decomposition(m,2));
        }
    }
    return 0;
}